target datalayout = "e-m:e-p270:32:32-p271:32:32-p272:64:64-i64:64-i128:128-f80:128-n8:16:32:64-S128"
target triple = "x86_64-pc-linux-gnu"

%struct.H266RawGeneralTimingHrdParameters = type { i32, i32, i8, i8, i8, i8, i8, i8, i8, i8, i8 }
%struct.H266RawOlsTimingHrdParameters = type { [7 x i8], [7 x i8], [7 x i16], [7 x i8], %struct.H266RawSubLayerHRDParameters, %struct.H266RawSubLayerHRDParameters }
%struct.H266RawSubLayerHRDParameters = type { [7 x [32 x i32]], [7 x [32 x i32]], [7 x [32 x i32]], [7 x [32 x i32]], [7 x [32 x i8]] }

@.str.328 = private unnamed_addr constant [31 x i8] c"fixed_pic_rate_general_flag[i]\00", align 1
@.str.329 = private unnamed_addr constant [34 x i8] c"fixed_pic_rate_within_cvs_flag[i]\00", align 1
@.str.330 = private unnamed_addr constant [35 x i8] c"elemental_duration_in_tc_minus1[i]\00", align 1
@.str.331 = private unnamed_addr constant [22 x i8] c"low_delay_hrd_flag[i]\00", align 1

; Function Attrs: nounwind uwtable
define internal i32 @cbs_h266_read_ols_timing_hrd_parameters(ptr noundef %0, ptr noundef %1, ptr noundef %2, i8 noundef zeroext %3, i8 noundef zeroext %4, ptr noundef %5) #0 {
  %7 = alloca i32, align 4
  %8 = alloca ptr, align 8
  %9 = alloca ptr, align 8
  %10 = alloca ptr, align 8
  %11 = alloca i8, align 1
  %12 = alloca i8, align 1
  %13 = alloca ptr, align 8
  %14 = alloca i32, align 4
  %15 = alloca i32, align 4
  %16 = alloca i32, align 4
  %17 = alloca [2 x i32], align 4
  %18 = alloca i32, align 4
  %19 = alloca i32, align 4
  %20 = alloca [2 x i32], align 4
  %21 = alloca i32, align 4
  %22 = alloca [2 x i32], align 4
  %23 = alloca i32, align 4
  %24 = alloca [2 x i32], align 4
  store ptr %0, ptr %8, align 8, !tbaa !4
  store ptr %1, ptr %9, align 8, !tbaa !196
  store ptr %2, ptr %10, align 8, !tbaa !1454
  store i8 %3, ptr %11, align 1, !tbaa !32
  store i8 %4, ptr %12, align 1, !tbaa !32
  store ptr %5, ptr %13, align 8, !tbaa !1441
  call void @llvm.lifetime.start.p0(i64 4, ptr %14) #11
  call void @llvm.lifetime.start.p0(i64 4, ptr %15) #11
  %25 = load i8, ptr %11, align 1, !tbaa !32
  %26 = zext i8 %25 to i32
  store i32 %26, ptr %15, align 4, !tbaa !11
  br label %27

27:                                               ; preds = %247, %6
  %28 = load i32, ptr %15, align 4, !tbaa !11
  %29 = load i8, ptr %12, align 1, !tbaa !32
  %30 = zext i8 %29 to i32
  %31 = icmp sle i32 %28, %30
  br i1 %31, label %32, label %250

32:                                               ; preds = %27
  br label %33

33:                                               ; preds = %32
  call void @llvm.lifetime.start.p0(i64 4, ptr %16) #11
  br label %34

34:                                               ; preds = %33
  %35 = load ptr, ptr %8, align 8, !tbaa !4
  %36 = load ptr, ptr %9, align 8, !tbaa !196
  store i32 1, ptr %17, align 4, !tbaa !11
  %37 = getelementptr inbounds i32, ptr %17, i64 1
  %38 = load i32, ptr %15, align 4, !tbaa !11
  store i32 %38, ptr %37, align 4, !tbaa !11
  %39 = getelementptr inbounds [2 x i32], ptr %17, i64 0, i64 0
  %40 = call i32 @ff_cbs_read_unsigned(ptr noundef %35, ptr noundef %36, i32 noundef 1, ptr noundef @.str.328, ptr noundef %39, ptr noundef %16, i32 noundef 0, i32 noundef 1)
  store i32 %40, ptr %14, align 4, !tbaa !11
  %41 = load i32, ptr %14, align 4, !tbaa !11
  %42 = icmp slt i32 %41, 0
  br i1 %42, label %43, label %45

43:                                               ; preds = %34
  %44 = load i32, ptr %14, align 4, !tbaa !11
  store i32 %44, ptr %7, align 4
  store i32 1, ptr %18, align 4
  br label %55

45:                                               ; preds = %34
  br label %46

46:                                               ; preds = %45
  br label %47

47:                                               ; preds = %46
  %48 = load i32, ptr %16, align 4, !tbaa !11
  %49 = trunc i32 %48 to i8
  %50 = load ptr, ptr %10, align 8, !tbaa !1454
  %51 = getelementptr inbounds nuw %struct.H266RawOlsTimingHrdParameters, ptr %50, i32 0, i32 0
  %52 = load i32, ptr %15, align 4, !tbaa !11
  %53 = sext i32 %52 to i64
  %54 = getelementptr inbounds [7 x i8], ptr %51, i64 0, i64 %53
  store i8 %49, ptr %54, align 1, !tbaa !32
  store i32 0, ptr %18, align 4
  br label %55

55:                                               ; preds = %47, %43
  call void @llvm.lifetime.end.p0(i64 4, ptr %16) #11
  %56 = load i32, ptr %18, align 4
  switch i32 %56, label %251 [
    i32 0, label %57
  ]

57:                                               ; preds = %55
  br label %58

58:                                               ; preds = %57
  br label %59

59:                                               ; preds = %58
  %60 = load ptr, ptr %10, align 8, !tbaa !1454
  %61 = getelementptr inbounds nuw %struct.H266RawOlsTimingHrdParameters, ptr %60, i32 0, i32 0
  %62 = load i32, ptr %15, align 4, !tbaa !11
  %63 = sext i32 %62 to i64
  %64 = getelementptr inbounds [7 x i8], ptr %61, i64 0, i64 %63
  %65 = load i8, ptr %64, align 1, !tbaa !32
  %66 = icmp ne i8 %65, 0
  br i1 %66, label %95, label %67

67:                                               ; preds = %59
  br label %68

68:                                               ; preds = %67
  call void @llvm.lifetime.start.p0(i64 4, ptr %19) #11
  br label %69

69:                                               ; preds = %68
  %70 = load ptr, ptr %8, align 8, !tbaa !4
  %71 = load ptr, ptr %9, align 8, !tbaa !196
  store i32 1, ptr %20, align 4, !tbaa !11
  %72 = getelementptr inbounds i32, ptr %20, i64 1
  %73 = load i32, ptr %15, align 4, !tbaa !11
  store i32 %73, ptr %72, align 4, !tbaa !11
  %74 = getelementptr inbounds [2 x i32], ptr %20, i64 0, i64 0
  %75 = call i32 @ff_cbs_read_unsigned(ptr noundef %70, ptr noundef %71, i32 noundef 1, ptr noundef @.str.329, ptr noundef %74, ptr noundef %19, i32 noundef 0, i32 noundef 1)
  store i32 %75, ptr %14, align 4, !tbaa !11
  %76 = load i32, ptr %14, align 4, !tbaa !11
  %77 = icmp slt i32 %76, 0
  br i1 %77, label %78, label %80

78:                                               ; preds = %69
  %79 = load i32, ptr %14, align 4, !tbaa !11
  store i32 %79, ptr %7, align 4
  store i32 1, ptr %18, align 4
  br label %90

80:                                               ; preds = %69
  br label %81

81:                                               ; preds = %80
  br label %82

82:                                               ; preds = %81
  %83 = load i32, ptr %19, align 4, !tbaa !11
  %84 = trunc i32 %83 to i8
  %85 = load ptr, ptr %10, align 8, !tbaa !1454
  %86 = getelementptr inbounds nuw %struct.H266RawOlsTimingHrdParameters, ptr %85, i32 0, i32 1
  %87 = load i32, ptr %15, align 4, !tbaa !11
  %88 = sext i32 %87 to i64
  %89 = getelementptr inbounds [7 x i8], ptr %86, i64 0, i64 %88
  store i8 %84, ptr %89, align 1, !tbaa !32
  store i32 0, ptr %18, align 4
  br label %90

90:                                               ; preds = %82, %78
  call void @llvm.lifetime.end.p0(i64 4, ptr %19) #11
  %91 = load i32, ptr %18, align 4
  switch i32 %91, label %251 [
    i32 0, label %92
  ]

92:                                               ; preds = %90
  br label %93

93:                                               ; preds = %92
  br label %94

94:                                               ; preds = %93
  br label %104

95:                                               ; preds = %59
  br label %96

96:                                               ; preds = %95
  %97 = load ptr, ptr %10, align 8, !tbaa !1454
  %98 = getelementptr inbounds nuw %struct.H266RawOlsTimingHrdParameters, ptr %97, i32 0, i32 1
  %99 = load i32, ptr %15, align 4, !tbaa !11
  %100 = sext i32 %99 to i64
  %101 = getelementptr inbounds [7 x i8], ptr %98, i64 0, i64 %100
  store i8 1, ptr %101, align 1, !tbaa !32
  br label %102

102:                                              ; preds = %96
  br label %103

103:                                              ; preds = %102
  br label %104

104:                                              ; preds = %103, %94
  %105 = load ptr, ptr %10, align 8, !tbaa !1454
  %106 = getelementptr inbounds nuw %struct.H266RawOlsTimingHrdParameters, ptr %105, i32 0, i32 1
  %107 = load i32, ptr %15, align 4, !tbaa !11
  %108 = sext i32 %107 to i64
  %109 = getelementptr inbounds [7 x i8], ptr %106, i64 0, i64 %108
  %110 = load i8, ptr %109, align 1, !tbaa !32
  %111 = icmp ne i8 %110, 0
  br i1 %111, label %112, label %148

112:                                              ; preds = %104
  br label %113

113:                                              ; preds = %112
  call void @llvm.lifetime.start.p0(i64 4, ptr %21) #11
  br label %114

114:                                              ; preds = %113
  %115 = load ptr, ptr %8, align 8, !tbaa !4
  %116 = load ptr, ptr %9, align 8, !tbaa !196
  store i32 1, ptr %22, align 4, !tbaa !11
  %117 = getelementptr inbounds i32, ptr %22, i64 1
  %118 = load i32, ptr %15, align 4, !tbaa !11
  store i32 %118, ptr %117, align 4, !tbaa !11
  %119 = getelementptr inbounds [2 x i32], ptr %22, i64 0, i64 0
  %120 = call i32 @cbs_read_ue_golomb(ptr noundef %115, ptr noundef %116, ptr noundef @.str.330, ptr noundef %119, ptr noundef %21, i32 noundef 0, i32 noundef 2047)
  store i32 %120, ptr %14, align 4, !tbaa !11
  %121 = load i32, ptr %14, align 4, !tbaa !11
  %122 = icmp slt i32 %121, 0
  br i1 %122, label %123, label %125

123:                                              ; preds = %114
  %124 = load i32, ptr %14, align 4, !tbaa !11
  store i32 %124, ptr %7, align 4
  store i32 1, ptr %18, align 4
  br label %135

125:                                              ; preds = %114
  br label %126

126:                                              ; preds = %125
  br label %127

127:                                              ; preds = %126
  %128 = load i32, ptr %21, align 4, !tbaa !11
  %129 = trunc i32 %128 to i16
  %130 = load ptr, ptr %10, align 8, !tbaa !1454
  %131 = getelementptr inbounds nuw %struct.H266RawOlsTimingHrdParameters, ptr %130, i32 0, i32 2
  %132 = load i32, ptr %15, align 4, !tbaa !11
  %133 = sext i32 %132 to i64
  %134 = getelementptr inbounds [7 x i16], ptr %131, i64 0, i64 %133
  store i16 %129, ptr %134, align 2, !tbaa !195
  store i32 0, ptr %18, align 4
  br label %135

135:                                              ; preds = %127, %123
  call void @llvm.lifetime.end.p0(i64 4, ptr %21) #11
  %136 = load i32, ptr %18, align 4
  switch i32 %136, label %251 [
    i32 0, label %137
  ]

137:                                              ; preds = %135
  br label %138

138:                                              ; preds = %137
  br label %139

139:                                              ; preds = %138
  br label %140

140:                                              ; preds = %139
  %141 = load ptr, ptr %10, align 8, !tbaa !1454
  %142 = getelementptr inbounds nuw %struct.H266RawOlsTimingHrdParameters, ptr %141, i32 0, i32 3
  %143 = load i32, ptr %15, align 4, !tbaa !11
  %144 = sext i32 %143 to i64
  %145 = getelementptr inbounds [7 x i8], ptr %142, i64 0, i64 %144
  store i8 0, ptr %145, align 1, !tbaa !32
  br label %146

146:                                              ; preds = %140
  br label %147

147:                                              ; preds = %146
  br label %204

148:                                              ; preds = %104
  %149 = load ptr, ptr %13, align 8, !tbaa !1441
  %150 = getelementptr inbounds nuw %struct.H266RawGeneralTimingHrdParameters, ptr %149, i32 0, i32 2
  %151 = load i8, ptr %150, align 4, !tbaa !1445
  %152 = zext i8 %151 to i32
  %153 = icmp ne i32 %152, 0
  br i1 %153, label %160, label %154

154:                                              ; preds = %148
  %155 = load ptr, ptr %13, align 8, !tbaa !1441
  %156 = getelementptr inbounds nuw %struct.H266RawGeneralTimingHrdParameters, ptr %155, i32 0, i32 3
  %157 = load i8, ptr %156, align 1, !tbaa !1446
  %158 = zext i8 %157 to i32
  %159 = icmp ne i32 %158, 0
  br i1 %159, label %160, label %194

160:                                              ; preds = %154, %148
  %161 = load ptr, ptr %13, align 8, !tbaa !1441
  %162 = getelementptr inbounds nuw %struct.H266RawGeneralTimingHrdParameters, ptr %161, i32 0, i32 10
  %163 = load i8, ptr %162, align 4, !tbaa !1453
  %164 = zext i8 %163 to i32
  %165 = icmp eq i32 %164, 0
  br i1 %165, label %166, label %194

166:                                              ; preds = %160
  br label %167

167:                                              ; preds = %166
  call void @llvm.lifetime.start.p0(i64 4, ptr %23) #11
  br label %168

168:                                              ; preds = %167
  %169 = load ptr, ptr %8, align 8, !tbaa !4
  %170 = load ptr, ptr %9, align 8, !tbaa !196
  store i32 1, ptr %24, align 4, !tbaa !11
  %171 = getelementptr inbounds i32, ptr %24, i64 1
  %172 = load i32, ptr %15, align 4, !tbaa !11
  store i32 %172, ptr %171, align 4, !tbaa !11
  %173 = getelementptr inbounds [2 x i32], ptr %24, i64 0, i64 0
  %174 = call i32 @ff_cbs_read_unsigned(ptr noundef %169, ptr noundef %170, i32 noundef 1, ptr noundef @.str.331, ptr noundef %173, ptr noundef %23, i32 noundef 0, i32 noundef 1)
  store i32 %174, ptr %14, align 4, !tbaa !11
  %175 = load i32, ptr %14, align 4, !tbaa !11
  %176 = icmp slt i32 %175, 0
  br i1 %176, label %177, label %179

177:                                              ; preds = %168
  %178 = load i32, ptr %14, align 4, !tbaa !11
  store i32 %178, ptr %7, align 4
  store i32 1, ptr %18, align 4
  br label %189

179:                                              ; preds = %168
  br label %180

180:                                              ; preds = %179
  br label %181

181:                                              ; preds = %180
  %182 = load i32, ptr %23, align 4, !tbaa !11
  %183 = trunc i32 %182 to i8
  %184 = load ptr, ptr %10, align 8, !tbaa !1454
  %185 = getelementptr inbounds nuw %struct.H266RawOlsTimingHrdParameters, ptr %184, i32 0, i32 3
  %186 = load i32, ptr %15, align 4, !tbaa !11
  %187 = sext i32 %186 to i64
  %188 = getelementptr inbounds [7 x i8], ptr %185, i64 0, i64 %187
  store i8 %183, ptr %188, align 1, !tbaa !32
  store i32 0, ptr %18, align 4
  br label %189

189:                                              ; preds = %181, %177
  call void @llvm.lifetime.end.p0(i64 4, ptr %23) #11
  %190 = load i32, ptr %18, align 4
  switch i32 %190, label %251 [
    i32 0, label %191
  ]

191:                                              ; preds = %189
  br label %192

192:                                              ; preds = %191
  br label %193

193:                                              ; preds = %192
  br label %203

194:                                              ; preds = %160, %154
  br label %195

195:                                              ; preds = %194
  %196 = load ptr, ptr %10, align 8, !tbaa !1454
  %197 = getelementptr inbounds nuw %struct.H266RawOlsTimingHrdParameters, ptr %196, i32 0, i32 3
  %198 = load i32, ptr %15, align 4, !tbaa !11
  %199 = sext i32 %198 to i64
  %200 = getelementptr inbounds [7 x i8], ptr %197, i64 0, i64 %199
  store i8 0, ptr %200, align 1, !tbaa !32
  br label %201

201:                                              ; preds = %195
  br label %202

202:                                              ; preds = %201
  br label %203

203:                                              ; preds = %202, %193
  br label %204

204:                                              ; preds = %203, %147
  %205 = load ptr, ptr %13, align 8, !tbaa !1441
  %206 = getelementptr inbounds nuw %struct.H266RawGeneralTimingHrdParameters, ptr %205, i32 0, i32 2
  %207 = load i8, ptr %206, align 4, !tbaa !1445
  %208 = icmp ne i8 %207, 0
  br i1 %208, label %209, label %225

209:                                              ; preds = %204
  br label %210

210:                                              ; preds = %209
  %211 = load ptr, ptr %8, align 8, !tbaa !4
  %212 = load ptr, ptr %9, align 8, !tbaa !196
  %213 = load ptr, ptr %10, align 8, !tbaa !1454
  %214 = getelementptr inbounds nuw %struct.H266RawOlsTimingHrdParameters, ptr %213, i32 0, i32 4
  %215 = load i32, ptr %15, align 4, !tbaa !11
  %216 = load ptr, ptr %13, align 8, !tbaa !1441
  %217 = call i32 @cbs_h266_read_sublayer_hrd_parameters(ptr noundef %211, ptr noundef %212, ptr noundef %214, i32 noundef %215, ptr noundef %216)
  store i32 %217, ptr %14, align 4, !tbaa !11
  %218 = load i32, ptr %14, align 4, !tbaa !11
  %219 = icmp slt i32 %218, 0
  br i1 %219, label %220, label %222

220:                                              ; preds = %210
  %221 = load i32, ptr %14, align 4, !tbaa !11
  store i32 %221, ptr %7, align 4
  store i32 1, ptr %18, align 4
  br label %251

222:                                              ; preds = %210
  br label %223

223:                                              ; preds = %222
  br label %224

224:                                              ; preds = %223
  br label %225

225:                                              ; preds = %224, %204
  %226 = load ptr, ptr %13, align 8, !tbaa !1441
  %227 = getelementptr inbounds nuw %struct.H266RawGeneralTimingHrdParameters, ptr %226, i32 0, i32 3
  %228 = load i8, ptr %227, align 1, !tbaa !1446
  %229 = icmp ne i8 %228, 0
  br i1 %229, label %230, label %246

230:                                              ; preds = %225
  br label %231

231:                                              ; preds = %230
  %232 = load ptr, ptr %8, align 8, !tbaa !4
  %233 = load ptr, ptr %9, align 8, !tbaa !196
  %234 = load ptr, ptr %10, align 8, !tbaa !1454
  %235 = getelementptr inbounds nuw %struct.H266RawOlsTimingHrdParameters, ptr %234, i32 0, i32 4
  %236 = load i32, ptr %15, align 4, !tbaa !11
  %237 = load ptr, ptr %13, align 8, !tbaa !1441
  %238 = call i32 @cbs_h266_read_sublayer_hrd_parameters(ptr noundef %232, ptr noundef %233, ptr noundef %235, i32 noundef %236, ptr noundef %237)
  store i32 %238, ptr %14, align 4, !tbaa !11
  %239 = load i32, ptr %14, align 4, !tbaa !11
  %240 = icmp slt i32 %239, 0
  br i1 %240, label %241, label %243

241:                                              ; preds = %231
  %242 = load i32, ptr %14, align 4, !tbaa !11
  store i32 %242, ptr %7, align 4
  store i32 1, ptr %18, align 4
  br label %251

243:                                              ; preds = %231
  br label %244

244:                                              ; preds = %243
  br label %245

245:                                              ; preds = %244
  br label %246

246:                                              ; preds = %245, %225
  br label %247

247:                                              ; preds = %246
  %248 = load i32, ptr %15, align 4, !tbaa !11
  %249 = add nsw i32 %248, 1
  store i32 %249, ptr %15, align 4, !tbaa !11
  br label %27, !llvm.loop !1456

250:                                              ; preds = %27
  store i32 0, ptr %7, align 4
  store i32 1, ptr %18, align 4
  br label %251

251:                                              ; preds = %250, %241, %220, %189, %135, %90, %55
  call void @llvm.lifetime.end.p0(i64 4, ptr %15) #11
  call void @llvm.lifetime.end.p0(i64 4, ptr %14) #11
  %252 = load i32, ptr %7, align 4
  ret i32 %252
}