; Function Attrs: nounwind uwtable
define internal fastcc range(i32 -2147483648, 1) i32 @cbs_h266_read_ols_timing_hrd_parameters(ptr noundef %0, ptr noundef nonnull %1, ptr noundef writeonly captures(none) %2, i8 noundef zeroext %3, i8 noundef zeroext %4, ptr noundef readonly captures(none) %5) unnamed_addr #0 {
  %7 = alloca i32, align 4
  %8 = alloca [2 x i32], align 4
  %9 = alloca i32, align 4
  %10 = alloca [2 x i32], align 4
  %11 = alloca i32, align 4
  %12 = alloca [2 x i32], align 4
  %13 = alloca i32, align 4
  %14 = alloca [2 x i32], align 4
  %.not100 = icmp ugt i8 %3, %4
  br i1 %.not100, label %.loopexit, label %.lr.ph

.lr.ph:                                           ; preds = %6
  %15 = zext i8 %4 to i64
  %16 = getelementptr inbounds nuw i8, ptr %8, i64 4
  %17 = getelementptr inbounds nuw i8, ptr %2, i64 7
  %18 = getelementptr inbounds nuw i8, ptr %10, i64 4
  %19 = getelementptr inbounds nuw i8, ptr %12, i64 4
  %20 = getelementptr inbounds nuw i8, ptr %2, i64 14
  %21 = getelementptr inbounds nuw i8, ptr %2, i64 28
  %22 = getelementptr inbounds nuw i8, ptr %5, i64 8
  %23 = getelementptr inbounds nuw i8, ptr %5, i64 9
  %24 = getelementptr inbounds nuw i8, ptr %5, i64 16
  %25 = getelementptr inbounds nuw i8, ptr %14, i64 4
  %26 = getelementptr inbounds nuw i8, ptr %2, i64 36
  %27 = zext i8 %3 to i64
  br label %28

28:                                               ; preds = %.lr.ph, %82
  %indvars.iv = phi i64 [ %27, %.lr.ph ], [ %indvars.iv.next, %82 ]
  call void @llvm.lifetime.start.p0(i64 4, ptr nonnull %7) #11
  store i32 1, ptr %8, align 4, !tbaa !63
  %29 = trunc nuw nsw i64 %indvars.iv to i32
  store i32 %29, ptr %16, align 4, !tbaa !63
  %30 = call i32 @ff_cbs_read_unsigned(ptr noundef %0, ptr noundef nonnull %1, i32 noundef 1, ptr noundef nonnull @.str.328, ptr noundef nonnull %8, ptr noundef nonnull %7, i32 noundef 0, i32 noundef 1) #11
  %31 = icmp sgt i32 %30, -1
  br i1 %31, label %33, label %32

32:                                               ; preds = %28
  call void @llvm.lifetime.end.p0(i64 4, ptr nonnull %7) #11
  br label %.loopexit

33:                                               ; preds = %28
  %34 = load i32, ptr %7, align 4, !tbaa !63
  %35 = trunc i32 %34 to i8
  %36 = getelementptr inbounds nuw [7 x i8], ptr %2, i64 0, i64 %indvars.iv
  store i8 %35, ptr %36, align 1, !tbaa !25
  call void @llvm.lifetime.end.p0(i64 4, ptr nonnull %7) #11
  %.not79 = icmp eq i8 %35, 0
  br i1 %.not79, label %37, label %.thread

37:                                               ; preds = %33
  call void @llvm.lifetime.start.p0(i64 4, ptr nonnull %9) #11
  store i32 1, ptr %10, align 4, !tbaa !63
  store i32 %29, ptr %18, align 4, !tbaa !63
  %38 = call i32 @ff_cbs_read_unsigned(ptr noundef %0, ptr noundef nonnull %1, i32 noundef 1, ptr noundef nonnull @.str.329, ptr noundef nonnull %10, ptr noundef nonnull %9, i32 noundef 0, i32 noundef 1) #11
  %39 = icmp sgt i32 %38, -1
  br i1 %39, label %42, label %40

40:                                               ; preds = %37
  call void @llvm.lifetime.end.p0(i64 4, ptr nonnull %9) #11
  br label %.loopexit

.thread:                                          ; preds = %33
  %41 = getelementptr inbounds nuw [7 x i8], ptr %17, i64 0, i64 %indvars.iv
  store i8 1, ptr %41, align 1, !tbaa !25
  br label %47

42:                                               ; preds = %37
  %43 = load i32, ptr %9, align 4, !tbaa !63
  %44 = trunc i32 %43 to i8
  %45 = getelementptr inbounds nuw [7 x i8], ptr %17, i64 0, i64 %indvars.iv
  store i8 %44, ptr %45, align 1, !tbaa !25
  call void @llvm.lifetime.end.p0(i64 4, ptr nonnull %9) #11
  %46 = icmp eq i8 %44, 0
  br i1 %46, label %56, label %47

47:                                               ; preds = %.thread, %42
  call void @llvm.lifetime.start.p0(i64 4, ptr nonnull %11) #11
  store i32 1, ptr %12, align 4, !tbaa !63
  store i32 %29, ptr %19, align 4, !tbaa !63
  %48 = call fastcc i32 @cbs_read_ue_golomb(ptr noundef %0, ptr noundef nonnull %1, ptr noundef nonnull @.str.330, ptr noundef nonnull %12, ptr noundef %11, i32 noundef 0, i32 noundef 2047)
  %49 = icmp sgt i32 %48, -1
  br i1 %49, label %51, label %50

50:                                               ; preds = %47
  call void @llvm.lifetime.end.p0(i64 4, ptr nonnull %11) #11
  br label %.loopexit

51:                                               ; preds = %47
  %52 = load i32, ptr %11, align 4, !tbaa !63
  %53 = trunc i32 %52 to i16
  %54 = getelementptr inbounds nuw [7 x i16], ptr %20, i64 0, i64 %indvars.iv
  store i16 %53, ptr %54, align 2, !tbaa !129
  call void @llvm.lifetime.end.p0(i64 4, ptr nonnull %11) #11
  %55 = getelementptr inbounds nuw [7 x i8], ptr %21, i64 0, i64 %indvars.iv
  store i8 0, ptr %55, align 1, !tbaa !25
  br label %72

56:                                               ; preds = %42
  %57 = load i8, ptr %22, align 4, !tbaa !1454
  %.not81 = icmp eq i8 %57, 0
  br i1 %.not81, label %58, label %60

58:                                               ; preds = %56
  %59 = load i8, ptr %23, align 1, !tbaa !1455
  %.not82 = icmp eq i8 %59, 0
  br i1 %.not82, label %70, label %60

60:                                               ; preds = %58, %56
  %61 = load i8, ptr %24, align 4, !tbaa !1462
  %62 = icmp eq i8 %61, 0
  br i1 %62, label %63, label %70

63:                                               ; preds = %60
  call void @llvm.lifetime.start.p0(i64 4, ptr nonnull %13) #11
  store i32 1, ptr %14, align 4, !tbaa !63
  store i32 %29, ptr %25, align 4, !tbaa !63
  %64 = call i32 @ff_cbs_read_unsigned(ptr noundef %0, ptr noundef nonnull %1, i32 noundef 1, ptr noundef nonnull @.str.331, ptr noundef nonnull %14, ptr noundef nonnull %13, i32 noundef 0, i32 noundef 1) #11
  %65 = icmp sgt i32 %64, -1
  br i1 %65, label %.thread92, label %69

.thread92:                                        ; preds = %63
  %66 = load i32, ptr %13, align 4, !tbaa !63
  %67 = trunc i32 %66 to i8
  %68 = getelementptr inbounds nuw [7 x i8], ptr %21, i64 0, i64 %indvars.iv
  store i8 %67, ptr %68, align 1, !tbaa !25
  call void @llvm.lifetime.end.p0(i64 4, ptr nonnull %13) #11
  br label %72

69:                                               ; preds = %63
  call void @llvm.lifetime.end.p0(i64 4, ptr nonnull %13) #11
  br label %.loopexit

70:                                               ; preds = %58, %60
  %71 = getelementptr inbounds nuw [7 x i8], ptr %21, i64 0, i64 %indvars.iv
  store i8 0, ptr %71, align 1, !tbaa !25
  br label %72

72:                                               ; preds = %.thread92, %70, %51
  %73 = load i8, ptr %22, align 4, !tbaa !1454
  %.not83 = icmp eq i8 %73, 0
  br i1 %.not83, label %77, label %74

74:                                               ; preds = %72
  %75 = call fastcc i32 @cbs_h266_read_sublayer_hrd_parameters(ptr noundef %0, ptr noundef %1, ptr noundef nonnull %26, i32 noundef %29, ptr noundef nonnull %5)
  %76 = icmp slt i32 %75, 0
  br i1 %76, label %.loopexit, label %77

77:                                               ; preds = %74, %72
  %78 = load i8, ptr %23, align 1, !tbaa !1455
  %.not84 = icmp eq i8 %78, 0
  br i1 %.not84, label %82, label %79

79:                                               ; preds = %77
  %80 = call fastcc i32 @cbs_h266_read_sublayer_hrd_parameters(ptr noundef %0, ptr noundef %1, ptr noundef nonnull %26, i32 noundef %29, ptr noundef nonnull %5)
  %81 = icmp slt i32 %80, 0
  br i1 %81, label %.loopexit, label %82

82:                                               ; preds = %77, %79
  %indvars.iv.next = add nuw nsw i64 %indvars.iv, 1
  %exitcond.not = icmp eq i64 %indvars.iv, %15
  br i1 %exitcond.not, label %.loopexit, label %28, !llvm.loop !1463

.loopexit:                                        ; preds = %74, %79, %82, %6, %69, %50, %40, %32
  %.271 = phi i32 [ %48, %50 ], [ %64, %69 ], [ %38, %40 ], [ %30, %32 ], [ 0, %6 ], [ %75, %74 ], [ %80, %79 ], [ 0, %82 ]
  ret i32 %.271
}